; Function Attrs: mustprogress nofree norecurse nosync nounwind willreturn memory(none) uwtable
define internal range(i32 0, 2) i32 @is_code_ctype(i32 noundef %0, i32 noundef %1) #4 {
  %3 = icmp ult i32 %0, 256
  br i1 %3, label %4, label %11

4:                                                ; preds = %2
  %5 = zext nneg i32 %0 to i64
  %6 = getelementptr inbounds nuw [256 x i16], ptr @EncISO_8859_1_CtypeTable, i64 0, i64 %5
  %7 = load i16, ptr %6, align 2, !tbaa !18
  %8 = zext i16 %7 to i32
  %9 = lshr i32 %8, %1
  %10 = and i32 %9, 1
  br label %11

11:                                               ; preds = %2, %4
  %.0 = phi i32 [ %10, %4 ], [ 0, %2 ]
  ret i32 %.0
}